(lp0
I145499533
aI143372922
aI140146781
aI139791861
aI116362700
aI115513085
aI115512512
aI114824339
aI108382988
aI107544554
aI105961394
aI104963798
aI104249727
aI104235481
aI96829836
aI96664271
aI95955871
aI95731172
aI94636858
aI92623297
aI90511697
aI89018574
aI87075439
aI85788068
aI85603854
aI84094372
aI84076863
aI83333300
aI82714804
aI82400064
aI81828490
aI81439958
aI80405070
aI79650494
aI78693749
aI74550725
aI71749175
aI71114686
aI70607211
aI69610339
aI68781185
aI68330395
aI67995848
aI67220892
aI66528154
aI65212470
aI65170599
aI64348989
aI63816907
aI63677189
aI62549695
aI61630532
aI61614633
aI59863489
aI58704064
aI56834251
aI56783491
aI56463364
aI54999357
aI54343977
aI53919756
aI53186166
aI52650019
aI52437361
aI51203806
aI50750339
aI49081543
aI48169084
aI46919513
aI46576295
aI45618575
aI44473103
aI44434508
aI44030337
aI43969852
aI43949484
aI43190270
aI41441059
aI41265813
aI41229669
aI40768837
aI40572559
aI40379517
aI40293333
aI40069014
aI39615521
aI39565480
aI39203045
aI38344185
aI37868827
aI36880083
aI36690579
aI36483901
aI36370563
aI36139712
aI36114446
aI36019352
aI35865024
aI35407181
aI35094637
aI34999173
aI34776475
aI34716038
aI34428380
aI34305899
aI34294000
aI33969344
aI33648561
aI33620735
aI33581258
aI33576551
aI33267929
aI32813641
aI32549069
aI32283033
aI31545838
aI31465863
aI31266881
aI31176345
aI31087078
aI30912657
aI30464067
aI30360554
aI30344445
aI30045479
aI29952857
aI29871826
aI29663668
aI29542525
aI29512806
aI29330030
aI28967115
aI28897926
aI28871546
aI28706024
aI28475328
aI28456384
aI28399797
aI28331519
aI28225894
aI28207101
aI28136539
aI28068059
aI28054681
aI28016036
aI27974543
aI27964284
aI27730416
aI27711339
aI27668050
aI27532670
aI27478976
aI27260086
aI26895879
aI26885308
aI26785403
aI26618680
aI26604704
aI26565946
aI26516984
aI26413907
aI26281077
aI26098254
aI26090319
aI26082703
aI26032912
aI25844958
aI25768420
aI25638291
aI25406464
aI25242416
aI25238899
aI25215221
aI25207524
aI25029035
aI24908960
aI24859104
aI24774508
aI24742957
aI24741517
aI24719760
aI24655293
aI24502450
aI24326400
aI24325657
aI24325547
aI24305695
aI24285686
aI24119113
aI24108107
aI24050414
aI23911778
aI23832022
aI23690344
aI23670204
aI23632355
aI23622416
aI23559586
aI23530444
aI23497233
aI23450304
aI23248904
aI23228600
aI23127127
aI23044011
aI23027648
aI23006794
aI22945797
aI22738950
aI22734068
aI22676703
aI22668242
aI22655610
aI22655414
aI22654980
aI22563769
aI22554025
aI22540123
aI22462180
aI22321602
aI22307857
aI22289569
aI22097952
aI21907142
aI21854633
aI21830432
aI21819019
aI21733814
aI21705616
aI21681783
aI21642231
aI21554757
aI21544507
aI21349535
aI21323673
aI21278412
aI21271656
aI21264379
aI21207688
aI21188490
aI20985035
aI20823773
aI20759856
aI20727198
aI20696985
aI20566864
aI20265966
aI20195191
aI20172395
aI20018424
aI20010728
aI19980906
aI19979210
aI19952394
aI19928398
aI19921429
aI19899273
aI19675870
aI19661294
aI19603790
aI19575977
aI19555067
aI19553975
aI19552745
aI19404587
aI19330043
aI19272244
aI19238265
aI19199993
aI19117213
aI19097874
aI19081309
aI19080760
aI18863815
aI18863783
aI18863720
aI18854056
aI18785430
aI18685286
aI18518096
aI18395177
aI18228898
aI18222770
aI18222378
aI18220175
aI18133405
aI18123507
aI18118234
aI18022904
aI17998052
aI17996543
aI17919972
aI17881347
aI17854063
aI17844611
aI17790377
aI17696167
aI17681513
aI17580770
aI17494153
aI17489192
aI17399269
aI17391089
aI17372853
aI17294851
aI17174309
aI17053662
aI17019152
aI17008353
aI16998020
aI16870672
aI16827333
aI16729297
aI16685316
aI16674308
aI16642886
aI16515910
aI16488614
aI16463853
aI16448128
aI16409683
aI16381279
aI16342690
aI16264006
aI16186949
aI16143507
aI16123492
aI16117904
aI15988527
aI15901190
aI15532987
aI15450695
aI15340816
aI15284851
aI15279958
aI15155074
aI15036026
aI15014405
aI14994465
aI14939981
aI14939371
aI14874125
aI14791044
aI14790817
aI14780482
aI14737536
aI14523801
aI14464766
aI14444926
aI14429414
aI14354410
aI14319589
aI14230524
aI14216203
aI14142946
aI12045112
aI11252962
aI10798802
aI10594232
aI9212982
a.